target datalayout = "e-m:e-p270:32:32-p271:32:32-p272:64:64-i64:64-i128:128-f80:128-n8:16:32:64-S128"
target triple = "x86_64-pc-linux-gnu"

%struct.DdManager = type { %struct.DdNode, ptr, ptr, ptr, ptr, ptr, ptr, ptr, i32, i32, double, double, double, i32, i32, i32, i32, i32, i32, ptr, ptr, %struct.DdSubtable, i32, i32, i32, i32, i32, i32, i32, double, i32, i32, i32, ptr, i64, double, i32, ptr, ptr, ptr, ptr, ptr, ptr, ptr, i32, ptr, ptr, ptr, ptr, ptr, ptr, i32, i32, i32, double, i32, i32, i32, i32, double, double, i32, i32, i32, i32, i32, i32, i32, i32, i32, ptr, ptr, i32, i32, i32, i32, i32, i32, ptr, ptr, ptr, ptr, ptr, ptr, ptr, ptr, i32, i64, i64, i64, i32, i64, i64, double, double, double, double, double, double, i32, ptr, ptr, i64 }
%struct.DdNode = type { i32, i32, ptr, %union.anon, i64 }
%union.anon = type { %struct.DdChildren }
%struct.DdChildren = type { ptr, ptr }
%struct.DdSubtable = type { ptr, i32, i32, i32, i32, i32, i32, i32, i32, i32, i32, i32 }
%struct.DdLocalCache = type { ptr, i32, i32, i32, i32, double, double, double, i32, ptr, ptr }

; Function Attrs: nounwind uwtable
define void @cuddLocalCacheClearAll(ptr noundef %0) #0 {
  %2 = alloca ptr, align 8
  %3 = alloca ptr, align 8
  store ptr %0, ptr %2, align 8, !tbaa !3
  call void @llvm.lifetime.start.p0(i64 8, ptr %3) #10
  %4 = load ptr, ptr %2, align 8, !tbaa !3
  %5 = getelementptr inbounds nuw %struct.DdManager, ptr %4, i32 0, i32 78
  %6 = load ptr, ptr %5, align 8, !tbaa !43
  store ptr %6, ptr %3, align 8, !tbaa !10
  br label %7

7:                                                ; preds = %10, %1
  %8 = load ptr, ptr %3, align 8, !tbaa !10
  %9 = icmp ne ptr %8, null
  br i1 %9, label %10, label %25

10:                                               ; preds = %7
  %11 = load ptr, ptr %3, align 8, !tbaa !10
  %12 = getelementptr inbounds nuw %struct.DdLocalCache, ptr %11, i32 0, i32 0
  %13 = load ptr, ptr %12, align 8, !tbaa !34
  %14 = load ptr, ptr %3, align 8, !tbaa !10
  %15 = getelementptr inbounds nuw %struct.DdLocalCache, ptr %14, i32 0, i32 3
  %16 = load i32, ptr %15, align 8, !tbaa !35
  %17 = load ptr, ptr %3, align 8, !tbaa !10
  %18 = getelementptr inbounds nuw %struct.DdLocalCache, ptr %17, i32 0, i32 1
  %19 = load i32, ptr %18, align 8, !tbaa !32
  %20 = mul i32 %16, %19
  %21 = zext i32 %20 to i64
  call void @llvm.memset.p0.i64(ptr align 8 %13, i8 0, i64 %21, i1 false)
  %22 = load ptr, ptr %3, align 8, !tbaa !10
  %23 = getelementptr inbounds nuw %struct.DdLocalCache, ptr %22, i32 0, i32 10
  %24 = load ptr, ptr %23, align 8, !tbaa !44
  store ptr %24, ptr %3, align 8, !tbaa !10
  br label %7, !llvm.loop !61

25:                                               ; preds = %7
  call void @llvm.lifetime.end.p0(i64 8, ptr %3) #10
  ret void
}