; Function Attrs: nofree norecurse nosync nounwind memory(readwrite, inaccessiblemem: none) uwtable
define void @cuddLocalCacheClearAll(ptr noundef readonly captures(none) %0) local_unnamed_addr #6 {
  %2 = getelementptr inbounds nuw i8, ptr %0, i64 560
  %.06 = load ptr, ptr %2, align 8, !tbaa !42
  %.not7 = icmp eq ptr %.06, null
  br i1 %.not7, label %._crit_edge, label %.lr.ph

.lr.ph:                                           ; preds = %1, %.lr.ph
  %.08 = phi ptr [ %.0, %.lr.ph ], [ %.06, %1 ]
  %3 = load ptr, ptr %.08, align 8, !tbaa !31
  %4 = getelementptr inbounds nuw i8, ptr %.08, i64 16
  %5 = load i32, ptr %4, align 8, !tbaa !32
  %6 = getelementptr inbounds nuw i8, ptr %.08, i64 8
  %7 = load i32, ptr %6, align 8, !tbaa !29
  %8 = mul i32 %7, %5
  %9 = zext i32 %8 to i64
  tail call void @llvm.memset.p0.i64(ptr align 8 %3, i8 0, i64 %9, i1 false)
  %10 = getelementptr inbounds nuw i8, ptr %.08, i64 64
  %.0 = load ptr, ptr %10, align 8, !tbaa !42
  %.not = icmp eq ptr %.0, null
  br i1 %.not, label %._crit_edge, label %.lr.ph, !llvm.loop !55

._crit_edge:                                      ; preds = %.lr.ph, %1
  ret void
}